; Function Attrs: mustprogress nofree norecurse nosync nounwind willreturn memory(read, argmem: readwrite, inaccessiblemem: none) uwtable
define dso_local noundef zeroext i1 @_ZNK4llvm12X86InstrInfo14isFrameOperandERKNS_12MachineInstrEjRi(ptr noundef nonnull readnone align 8 captures(none) dereferenceable(416) %0, ptr noundef nonnull readonly align 8 captures(none) dereferenceable(70) %1, i32 noundef %2, ptr noundef nonnull writeonly align 4 captures(none) dereferenceable(4) %3) local_unnamed_addr #5 align 2 {
  %5 = getelementptr inbounds nuw i8, ptr %1, i64 32
  %6 = load ptr, ptr %5, align 8
  %7 = zext i32 %2 to i64
  %8 = getelementptr inbounds nuw %"class.llvm::MachineOperand", ptr %6, i64 %7
  %9 = load i32, ptr %8, align 8
  %10 = and i32 %9, 255
  %11 = icmp eq i32 %10, 5
  br i1 %11, label %12, label %.critedge

12:                                               ; preds = %4
  %13 = add i32 %2, 1
  %14 = zext i32 %13 to i64
  %15 = getelementptr inbounds nuw %"class.llvm::MachineOperand", ptr %6, i64 %14
  %16 = load i32, ptr %15, align 8
  %17 = and i32 %16, 255
  %18 = icmp eq i32 %17, 1
  br i1 %18, label %19, label %.critedge

19:                                               ; preds = %12
  %20 = add i32 %2, 2
  %21 = zext i32 %20 to i64
  %22 = getelementptr inbounds nuw %"class.llvm::MachineOperand", ptr %6, i64 %21
  %23 = load i32, ptr %22, align 8
  %24 = and i32 %23, 255
  %25 = icmp eq i32 %24, 0
  br i1 %25, label %26, label %.critedge

26:                                               ; preds = %19
  %27 = add i32 %2, 3
  %28 = zext i32 %27 to i64
  %29 = getelementptr inbounds nuw %"class.llvm::MachineOperand", ptr %6, i64 %28
  %30 = load i32, ptr %29, align 8
  %31 = and i32 %30, 255
  %32 = icmp eq i32 %31, 1
  br i1 %32, label %33, label %.critedge

33:                                               ; preds = %26
  %34 = getelementptr inbounds nuw i8, ptr %15, i64 16
  %35 = load i64, ptr %34, align 8
  %36 = icmp eq i64 %35, 1
  br i1 %36, label %37, label %.critedge

37:                                               ; preds = %33
  %38 = getelementptr inbounds nuw i8, ptr %22, i64 4
  %39 = load i32, ptr %38, align 4
  %40 = icmp eq i32 %39, 0
  br i1 %40, label %41, label %.critedge

41:                                               ; preds = %37
  %42 = getelementptr inbounds nuw i8, ptr %29, i64 16
  %43 = load i64, ptr %42, align 8
  %44 = icmp eq i64 %43, 0
  br i1 %44, label %45, label %.critedge

45:                                               ; preds = %41
  %46 = getelementptr inbounds nuw i8, ptr %8, i64 16
  %47 = load i32, ptr %46, align 8
  store i32 %47, ptr %3, align 4
  br label %.critedge

.critedge:                                        ; preds = %41, %4, %12, %19, %26, %33, %37, %45
  %.0 = phi i1 [ true, %45 ], [ false, %37 ], [ false, %33 ], [ false, %26 ], [ false, %19 ], [ false, %12 ], [ false, %4 ], [ false, %41 ]
  ret i1 %.0
}